target datalayout = "e-m:e-p270:32:32-p271:32:32-p272:64:64-i64:64-i128:128-f80:128-n8:16:32:64-S128"
target triple = "x86_64-pc-linux-gnu"

; Function Attrs: nounwind uwtable
define internal i32 @mbim_uuid_equal(ptr noundef %0, ptr noundef %1) #0 {
  %3 = alloca ptr, align 8
  %4 = alloca ptr, align 8
  %5 = alloca ptr, align 8
  %6 = alloca ptr, align 8
  store ptr %0, ptr %3, align 8
  store ptr %1, ptr %4, align 8
  %7 = load ptr, ptr %3, align 8
  store ptr %7, ptr %5, align 8
  %8 = load ptr, ptr %4, align 8
  store ptr %8, ptr %6, align 8
  %9 = load ptr, ptr %5, align 8
  %10 = getelementptr i32, ptr %9, i64 0
  %11 = load i32, ptr %10, align 4
  %12 = load ptr, ptr %6, align 8
  %13 = getelementptr i32, ptr %12, i64 0
  %14 = load i32, ptr %13, align 4
  %15 = icmp eq i32 %11, %14
  br i1 %15, label %16, label %40

16:                                               ; preds = %2
  %17 = load ptr, ptr %5, align 8
  %18 = getelementptr i32, ptr %17, i64 1
  %19 = load i32, ptr %18, align 4
  %20 = load ptr, ptr %6, align 8
  %21 = getelementptr i32, ptr %20, i64 1
  %22 = load i32, ptr %21, align 4
  %23 = icmp eq i32 %19, %22
  br i1 %23, label %24, label %40

24:                                               ; preds = %16
  %25 = load ptr, ptr %5, align 8
  %26 = getelementptr i32, ptr %25, i64 2
  %27 = load i32, ptr %26, align 4
  %28 = load ptr, ptr %6, align 8
  %29 = getelementptr i32, ptr %28, i64 2
  %30 = load i32, ptr %29, align 4
  %31 = icmp eq i32 %27, %30
  br i1 %31, label %32, label %40

32:                                               ; preds = %24
  %33 = load ptr, ptr %5, align 8
  %34 = getelementptr i32, ptr %33, i64 3
  %35 = load i32, ptr %34, align 4
  %36 = load ptr, ptr %6, align 8
  %37 = getelementptr i32, ptr %36, i64 3
  %38 = load i32, ptr %37, align 4
  %39 = icmp eq i32 %35, %38
  br label %40

40:                                               ; preds = %32, %24, %16, %2
  %41 = phi i1 [ false, %24 ], [ false, %16 ], [ false, %2 ], [ %39, %32 ]
  %42 = zext i1 %41 to i32
  ret i32 %42
}