; Function Attrs: mustprogress nofree norecurse nosync nounwind willreturn memory(argmem: read) uwtable
define internal range(i32 0, 2) i32 @mbim_uuid_equal(ptr noundef readonly captures(none) %0, ptr noundef readonly captures(none) %1) #2 {
  %3 = load i32, ptr %0, align 4
  %4 = load i32, ptr %1, align 4
  %5 = icmp eq i32 %3, %4
  br i1 %5, label %6, label %25

6:                                                ; preds = %2
  %7 = getelementptr i8, ptr %0, i64 4
  %8 = load i32, ptr %7, align 4
  %9 = getelementptr i8, ptr %1, i64 4
  %10 = load i32, ptr %9, align 4
  %11 = icmp eq i32 %8, %10
  br i1 %11, label %12, label %25

12:                                               ; preds = %6
  %13 = getelementptr i8, ptr %0, i64 8
  %14 = load i32, ptr %13, align 4
  %15 = getelementptr i8, ptr %1, i64 8
  %16 = load i32, ptr %15, align 4
  %17 = icmp eq i32 %14, %16
  br i1 %17, label %18, label %25

18:                                               ; preds = %12
  %19 = getelementptr i8, ptr %0, i64 12
  %20 = load i32, ptr %19, align 4
  %21 = getelementptr i8, ptr %1, i64 12
  %22 = load i32, ptr %21, align 4
  %23 = icmp eq i32 %20, %22
  %24 = zext i1 %23 to i32
  br label %25

25:                                               ; preds = %18, %12, %6, %2
  %26 = phi i32 [ 0, %12 ], [ 0, %6 ], [ 0, %2 ], [ %24, %18 ]
  ret i32 %26
}